target datalayout = "e-m:e-p270:32:32-p271:32:32-p272:64:64-i64:64-i128:128-f80:128-n8:16:32:64-S128"
target triple = "x86_64-pc-linux-gnu"

@time_format = dso_local global i32 1, align 4
@.str = private unnamed_addr constant [8 x i8] c"Minutes\00", align 1
@time_format_string = dso_local global ptr @.str, align 8
@stderr = external global ptr, align 8
@.str.84 = private unnamed_addr constant [7 x i8] c"SecPer\00", align 1
@.str.85 = private unnamed_addr constant [28 x i8] c"Seconds/Percentage of Total\00", align 1
@.str.86 = private unnamed_addr constant [7 x i8] c"MinPer\00", align 1
@.str.87 = private unnamed_addr constant [28 x i8] c"Minutes/Percentage of Total\00", align 1
@.str.88 = private unnamed_addr constant [8 x i8] c"HourPer\00", align 1
@.str.89 = private unnamed_addr constant [26 x i8] c"Hours/Percentage of Total\00", align 1
@.str.90 = private unnamed_addr constant [8 x i8] c"Seconds\00", align 1
@.str.91 = private unnamed_addr constant [6 x i8] c"Hours\00", align 1
@.str.92 = private unnamed_addr constant [8 x i8] c"Percent\00", align 1
@.str.93 = private unnamed_addr constant [20 x i8] c"Percentage of Total\00", align 1
@.str.94 = private unnamed_addr constant [23 x i8] c"unknown time format %s\00", align 1

; Function Attrs: nounwind uwtable
define internal i32 @_set_time_format(ptr noundef %0) #0 {
  %2 = alloca i32, align 4
  %3 = alloca ptr, align 8
  %4 = alloca i32, align 4
  %5 = alloca i32, align 4
  store ptr %0, ptr %3, align 8
  call void @llvm.lifetime.start.p0(i64 4, ptr %4) #11
  %6 = load ptr, ptr %3, align 8
  %7 = call i64 @strlen(ptr noundef %6) #15
  %8 = trunc i64 %7 to i32
  store i32 %8, ptr %4, align 4
  %9 = load ptr, ptr %3, align 8
  %10 = load i32, ptr %4, align 4
  %11 = icmp sgt i32 %10, 6
  br i1 %11, label %12, label %14

12:                                               ; preds = %1
  %13 = load i32, ptr %4, align 4
  br label %15

14:                                               ; preds = %1
  br label %15

15:                                               ; preds = %14, %12
  %16 = phi i32 [ %13, %12 ], [ 6, %14 ]
  %17 = sext i32 %16 to i64
  %18 = call i32 @xstrncasecmp(ptr noundef %9, ptr noundef @.str.84, i64 noundef %17)
  %19 = icmp eq i32 %18, 0
  br i1 %19, label %20, label %21

20:                                               ; preds = %15
  store i32 4, ptr @time_format, align 4
  store ptr @.str.85, ptr @time_format_string, align 8
  br label %109

21:                                               ; preds = %15
  %22 = load ptr, ptr %3, align 8
  %23 = load i32, ptr %4, align 4
  %24 = icmp sgt i32 %23, 6
  br i1 %24, label %25, label %27

25:                                               ; preds = %21
  %26 = load i32, ptr %4, align 4
  br label %28

27:                                               ; preds = %21
  br label %28

28:                                               ; preds = %27, %25
  %29 = phi i32 [ %26, %25 ], [ 6, %27 ]
  %30 = sext i32 %29 to i64
  %31 = call i32 @xstrncasecmp(ptr noundef %22, ptr noundef @.str.86, i64 noundef %30)
  %32 = icmp eq i32 %31, 0
  br i1 %32, label %33, label %34

33:                                               ; preds = %28
  store i32 5, ptr @time_format, align 4
  store ptr @.str.87, ptr @time_format_string, align 8
  br label %108

34:                                               ; preds = %28
  %35 = load ptr, ptr %3, align 8
  %36 = load i32, ptr %4, align 4
  %37 = icmp sgt i32 %36, 6
  br i1 %37, label %38, label %40

38:                                               ; preds = %34
  %39 = load i32, ptr %4, align 4
  br label %41

40:                                               ; preds = %34
  br label %41

41:                                               ; preds = %40, %38
  %42 = phi i32 [ %39, %38 ], [ 6, %40 ]
  %43 = sext i32 %42 to i64
  %44 = call i32 @xstrncasecmp(ptr noundef %35, ptr noundef @.str.88, i64 noundef %43)
  %45 = icmp eq i32 %44, 0
  br i1 %45, label %46, label %47

46:                                               ; preds = %41
  store i32 6, ptr @time_format, align 4
  store ptr @.str.89, ptr @time_format_string, align 8
  br label %107

47:                                               ; preds = %41
  %48 = load ptr, ptr %3, align 8
  %49 = load i32, ptr %4, align 4
  %50 = icmp sgt i32 %49, 1
  br i1 %50, label %51, label %53

51:                                               ; preds = %47
  %52 = load i32, ptr %4, align 4
  br label %54

53:                                               ; preds = %47
  br label %54

54:                                               ; preds = %53, %51
  %55 = phi i32 [ %52, %51 ], [ 1, %53 ]
  %56 = sext i32 %55 to i64
  %57 = call i32 @xstrncasecmp(ptr noundef %48, ptr noundef @.str.90, i64 noundef %56)
  %58 = icmp eq i32 %57, 0
  br i1 %58, label %59, label %60

59:                                               ; preds = %54
  store i32 0, ptr @time_format, align 4
  store ptr @.str.90, ptr @time_format_string, align 8
  br label %106

60:                                               ; preds = %54
  %61 = load ptr, ptr %3, align 8
  %62 = load i32, ptr %4, align 4
  %63 = icmp sgt i32 %62, 1
  br i1 %63, label %64, label %66

64:                                               ; preds = %60
  %65 = load i32, ptr %4, align 4
  br label %67

66:                                               ; preds = %60
  br label %67

67:                                               ; preds = %66, %64
  %68 = phi i32 [ %65, %64 ], [ 1, %66 ]
  %69 = sext i32 %68 to i64
  %70 = call i32 @xstrncasecmp(ptr noundef %61, ptr noundef @.str, i64 noundef %69)
  %71 = icmp eq i32 %70, 0
  br i1 %71, label %72, label %73

72:                                               ; preds = %67
  store i32 1, ptr @time_format, align 4
  store ptr @.str, ptr @time_format_string, align 8
  br label %105

73:                                               ; preds = %67
  %74 = load ptr, ptr %3, align 8
  %75 = load i32, ptr %4, align 4
  %76 = icmp sgt i32 %75, 1
  br i1 %76, label %77, label %79

77:                                               ; preds = %73
  %78 = load i32, ptr %4, align 4
  br label %80

79:                                               ; preds = %73
  br label %80

80:                                               ; preds = %79, %77
  %81 = phi i32 [ %78, %77 ], [ 1, %79 ]
  %82 = sext i32 %81 to i64
  %83 = call i32 @xstrncasecmp(ptr noundef %74, ptr noundef @.str.91, i64 noundef %82)
  %84 = icmp eq i32 %83, 0
  br i1 %84, label %85, label %86

85:                                               ; preds = %80
  store i32 2, ptr @time_format, align 4
  store ptr @.str.91, ptr @time_format_string, align 8
  br label %104

86:                                               ; preds = %80
  %87 = load ptr, ptr %3, align 8
  %88 = load i32, ptr %4, align 4
  %89 = icmp sgt i32 %88, 1
  br i1 %89, label %90, label %92

90:                                               ; preds = %86
  %91 = load i32, ptr %4, align 4
  br label %93

92:                                               ; preds = %86
  br label %93

93:                                               ; preds = %92, %90
  %94 = phi i32 [ %91, %90 ], [ 1, %92 ]
  %95 = sext i32 %94 to i64
  %96 = call i32 @xstrncasecmp(ptr noundef %87, ptr noundef @.str.92, i64 noundef %95)
  %97 = icmp eq i32 %96, 0
  br i1 %97, label %98, label %99

98:                                               ; preds = %93
  store i32 3, ptr @time_format, align 4
  store ptr @.str.93, ptr @time_format_string, align 8
  br label %103

99:                                               ; preds = %93
  %100 = load ptr, ptr @stderr, align 8
  %101 = load ptr, ptr %3, align 8
  %102 = call i32 (ptr, ptr, ...) @fprintf(ptr noundef %100, ptr noundef @.str.94, ptr noundef %101) #11
  store i32 -1, ptr %2, align 4
  store i32 1, ptr %5, align 4
  br label %110

103:                                              ; preds = %98
  br label %104

104:                                              ; preds = %103, %85
  br label %105

105:                                              ; preds = %104, %72
  br label %106

106:                                              ; preds = %105, %59
  br label %107

107:                                              ; preds = %106, %46
  br label %108

108:                                              ; preds = %107, %33
  br label %109

109:                                              ; preds = %108, %20
  store i32 0, ptr %2, align 4
  store i32 1, ptr %5, align 4
  br label %110

110:                                              ; preds = %109, %99
  call void @llvm.lifetime.end.p0(i64 4, ptr %4) #11
  %111 = load i32, ptr %2, align 4
  ret i32 %111
}