; Function Attrs: nounwind uwtable
define internal fastcc void @_set_time_format(ptr noundef %0) unnamed_addr #8 {
  %2 = tail call i64 @strlen(ptr noundef nonnull dereferenceable(1) %0) #21
  %3 = trunc i64 %2 to i32
  %4 = tail call i32 @llvm.smax.i32(i32 %3, i32 6)
  %5 = zext nneg i32 %4 to i64
  %6 = tail call i32 @xstrncasecmp(ptr noundef nonnull %0, ptr noundef nonnull @.str.84, i64 noundef %5) #17
  %7 = icmp eq i32 %6, 0
  br i1 %7, label %8, label %9

8:                                                ; preds = %1
  store i32 4, ptr @time_format, align 4
  store ptr @.str.85, ptr @time_format_string, align 8
  br label %38

9:                                                ; preds = %1
  %10 = tail call i32 @xstrncasecmp(ptr noundef nonnull %0, ptr noundef nonnull @.str.86, i64 noundef %5) #17
  %11 = icmp eq i32 %10, 0
  br i1 %11, label %12, label %13

12:                                               ; preds = %9
  store i32 5, ptr @time_format, align 4
  store ptr @.str.87, ptr @time_format_string, align 8
  br label %38

13:                                               ; preds = %9
  %14 = tail call i32 @xstrncasecmp(ptr noundef nonnull %0, ptr noundef nonnull @.str.88, i64 noundef %5) #17
  %15 = icmp eq i32 %14, 0
  br i1 %15, label %16, label %17

16:                                               ; preds = %13
  store i32 6, ptr @time_format, align 4
  store ptr @.str.89, ptr @time_format_string, align 8
  br label %38

17:                                               ; preds = %13
  %18 = tail call i32 @llvm.smax.i32(i32 %3, i32 1)
  %19 = zext nneg i32 %18 to i64
  %20 = tail call i32 @xstrncasecmp(ptr noundef nonnull %0, ptr noundef nonnull @.str.90, i64 noundef %19) #17
  %21 = icmp eq i32 %20, 0
  br i1 %21, label %22, label %23

22:                                               ; preds = %17
  store i32 0, ptr @time_format, align 4
  store ptr @.str.90, ptr @time_format_string, align 8
  br label %38

23:                                               ; preds = %17
  %24 = tail call i32 @xstrncasecmp(ptr noundef nonnull %0, ptr noundef nonnull @.str, i64 noundef %19) #17
  %25 = icmp eq i32 %24, 0
  br i1 %25, label %26, label %27

26:                                               ; preds = %23
  store i32 1, ptr @time_format, align 4
  store ptr @.str, ptr @time_format_string, align 8
  br label %38

27:                                               ; preds = %23
  %28 = tail call i32 @xstrncasecmp(ptr noundef nonnull %0, ptr noundef nonnull @.str.91, i64 noundef %19) #17
  %29 = icmp eq i32 %28, 0
  br i1 %29, label %30, label %31

30:                                               ; preds = %27
  store i32 2, ptr @time_format, align 4
  store ptr @.str.91, ptr @time_format_string, align 8
  br label %38

31:                                               ; preds = %27
  %32 = tail call i32 @xstrncasecmp(ptr noundef nonnull %0, ptr noundef nonnull @.str.92, i64 noundef %19) #17
  %33 = icmp eq i32 %32, 0
  br i1 %33, label %34, label %35

34:                                               ; preds = %31
  store i32 3, ptr @time_format, align 4
  store ptr @.str.93, ptr @time_format_string, align 8
  br label %38

35:                                               ; preds = %31
  %36 = load ptr, ptr @stderr, align 8
  %37 = tail call i32 (ptr, ptr, ...) @fprintf(ptr noundef %36, ptr noundef nonnull @.str.94, ptr noundef nonnull %0) #22
  br label %38

38:                                               ; preds = %8, %16, %26, %34, %30, %22, %12, %35
  ret void
}